(lp0
(dp1
VOriginal Text
p2
VThis app is so cool
p3
sVModel 
p4
VMultinomialNB
p5
sVResult 
p6
cnumpy.core.multiarray
_reconstruct
p7
(cnumpy
ndarray
p8
(I0
tp9
c_codecs
encode
p10
(Vb
p11
Vlatin1
p12
tp13
Rp14
tp15
Rp16
(I1
(I1
tp17
cnumpy
dtype
p18
(VU8
p19
I00
I01
tp20
Rp21
(I3
V<
p22
NNNI32
I4
I8
tp23
bI00
g10
(Vj\u0000\u0000\u0000o\u0000\u0000\u0000y\u0000\u0000\u0000\u0000\u0000\u0000\u0000\u0000\u0000\u0000\u0000\u0000\u0000\u0000\u0000\u0000\u0000\u0000\u0000\u0000\u0000\u0000\u0000
p24
g12
tp25
Rp26
tp27
bsa.